target datalayout = "e-m:e-p270:32:32-p271:32:32-p272:64:64-i64:64-i128:128-f80:128-n8:16:32:64-S128"
target triple = "x86_64-pc-linux-gnu"

%struct.tjregion = type { i32, i32, i32, i32 }

; Function Attrs: nounwind uwtable
define internal i32 @dummyDCTFilter(ptr noundef %0, i64 %1, i64 %2, i64 %3, i64 %4, i32 noundef %5, i32 noundef %6, ptr noundef %7) #0 {
  %9 = alloca %struct.tjregion, align 4
  %10 = alloca %struct.tjregion, align 4
  %11 = alloca ptr, align 8
  %12 = alloca i32, align 4
  %13 = alloca i32, align 4
  %14 = alloca ptr, align 8
  %15 = alloca i32, align 4
  %16 = getelementptr inbounds nuw { i64, i64 }, ptr %9, i32 0, i32 0
  store i64 %1, ptr %16, align 4
  %17 = getelementptr inbounds nuw { i64, i64 }, ptr %9, i32 0, i32 1
  store i64 %2, ptr %17, align 4
  %18 = getelementptr inbounds nuw { i64, i64 }, ptr %10, i32 0, i32 0
  store i64 %3, ptr %18, align 4
  %19 = getelementptr inbounds nuw { i64, i64 }, ptr %10, i32 0, i32 1
  store i64 %4, ptr %19, align 4
  store ptr %0, ptr %11, align 8, !tbaa !35
  store i32 %5, ptr %12, align 4, !tbaa !4
  store i32 %6, ptr %13, align 4, !tbaa !4
  store ptr %7, ptr %14, align 8, !tbaa !37
  call void @llvm.lifetime.start.p0(i64 4, ptr %15) #12
  store i32 0, ptr %15, align 4, !tbaa !4
  br label %20

20:                                               ; preds = %41, %8
  %21 = load i32, ptr %15, align 4, !tbaa !4
  %22 = getelementptr inbounds nuw %struct.tjregion, ptr %9, i32 0, i32 2
  %23 = load i32, ptr %22, align 4, !tbaa !17
  %24 = getelementptr inbounds nuw %struct.tjregion, ptr %9, i32 0, i32 3
  %25 = load i32, ptr %24, align 4, !tbaa !19
  %26 = mul nsw i32 %23, %25
  %27 = icmp slt i32 %21, %26
  br i1 %27, label %28, label %44

28:                                               ; preds = %20
  %29 = load ptr, ptr %11, align 8, !tbaa !35
  %30 = load i32, ptr %15, align 4, !tbaa !4
  %31 = sext i32 %30 to i64
  %32 = getelementptr inbounds i16, ptr %29, i64 %31
  %33 = load i16, ptr %32, align 2, !tbaa !39
  %34 = sext i16 %33 to i32
  %35 = sub nsw i32 0, %34
  %36 = trunc i32 %35 to i16
  %37 = load ptr, ptr %11, align 8, !tbaa !35
  %38 = load i32, ptr %15, align 4, !tbaa !4
  %39 = sext i32 %38 to i64
  %40 = getelementptr inbounds i16, ptr %37, i64 %39
  store i16 %36, ptr %40, align 2, !tbaa !39
  br label %41

41:                                               ; preds = %28
  %42 = load i32, ptr %15, align 4, !tbaa !4
  %43 = add nsw i32 %42, 1
  store i32 %43, ptr %15, align 4, !tbaa !4
  br label %20, !llvm.loop !41

44:                                               ; preds = %20
  call void @llvm.lifetime.end.p0(i64 4, ptr %15) #12
  ret i32 0
}